target datalayout = "e-m:e-p270:32:32-p271:32:32-p272:64:64-i64:64-i128:128-f80:128-n8:16:32:64-S128"
target triple = "x86_64-pc-linux-gnu"

%struct._root_keys_t = type { ptr, ptr, ptr, ptr }
%struct._GByteArray = type { ptr, i32 }

@.str.305 = private unnamed_addr constant [37 x i8] c"End-device identifier can't be empty\00", align 1
@.str.306 = private unnamed_addr constant [42 x i8] c"End-device identifier must be hexadecimal\00", align 1
@.str.307 = private unnamed_addr constant [50 x i8] c"End-device identifier must be 8 bytes hexadecimal\00", align 1
@.str.308 = private unnamed_addr constant [31 x i8] c"Application key can't be empty\00", align 1
@.str.309 = private unnamed_addr constant [36 x i8] c"Application key must be hexadecimal\00", align 1
@.str.310 = private unnamed_addr constant [45 x i8] c"Application key must be 16 bytes hexadecimal\00", align 1

; Function Attrs: nounwind null_pointer_is_valid sspstrong uwtable
define internal void @byte_array_reverse(ptr noundef %0) #4 {
  %2 = alloca ptr, align 8
  %3 = alloca i32, align 4
  %4 = alloca i8, align 1
  store ptr %0, ptr %2, align 8
  call void @llvm.lifetime.start.p0(i64 4, ptr %3) #10
  store i32 0, ptr %3, align 4
  br label %5

5:                                                ; preds = %51, %1
  %6 = load i32, ptr %3, align 4
  %7 = load ptr, ptr %2, align 8
  %8 = getelementptr inbounds nuw %struct._GByteArray, ptr %7, i32 0, i32 1
  %9 = load i32, ptr %8, align 8
  %10 = udiv i32 %9, 2
  %11 = icmp ult i32 %6, %10
  br i1 %11, label %13, label %12

12:                                               ; preds = %5
  call void @llvm.lifetime.end.p0(i64 4, ptr %3) #10
  br label %54

13:                                               ; preds = %5
  call void @llvm.lifetime.start.p0(i64 1, ptr %4) #10
  %14 = load ptr, ptr %2, align 8
  %15 = getelementptr inbounds nuw %struct._GByteArray, ptr %14, i32 0, i32 0
  %16 = load ptr, ptr %15, align 8
  %17 = load i32, ptr %3, align 4
  %18 = zext i32 %17 to i64
  %19 = getelementptr i8, ptr %16, i64 %18
  %20 = load i8, ptr %19, align 1
  store i8 %20, ptr %4, align 1
  %21 = load ptr, ptr %2, align 8
  %22 = getelementptr inbounds nuw %struct._GByteArray, ptr %21, i32 0, i32 0
  %23 = load ptr, ptr %22, align 8
  %24 = load ptr, ptr %2, align 8
  %25 = getelementptr inbounds nuw %struct._GByteArray, ptr %24, i32 0, i32 1
  %26 = load i32, ptr %25, align 8
  %27 = sub i32 %26, 1
  %28 = load i32, ptr %3, align 4
  %29 = sub i32 %27, %28
  %30 = zext i32 %29 to i64
  %31 = getelementptr i8, ptr %23, i64 %30
  %32 = load i8, ptr %31, align 1
  %33 = load ptr, ptr %2, align 8
  %34 = getelementptr inbounds nuw %struct._GByteArray, ptr %33, i32 0, i32 0
  %35 = load ptr, ptr %34, align 8
  %36 = load i32, ptr %3, align 4
  %37 = zext i32 %36 to i64
  %38 = getelementptr i8, ptr %35, i64 %37
  store i8 %32, ptr %38, align 1
  %39 = load i8, ptr %4, align 1
  %40 = load ptr, ptr %2, align 8
  %41 = getelementptr inbounds nuw %struct._GByteArray, ptr %40, i32 0, i32 0
  %42 = load ptr, ptr %41, align 8
  %43 = load ptr, ptr %2, align 8
  %44 = getelementptr inbounds nuw %struct._GByteArray, ptr %43, i32 0, i32 1
  %45 = load i32, ptr %44, align 8
  %46 = sub i32 %45, 1
  %47 = load i32, ptr %3, align 4
  %48 = sub i32 %46, %47
  %49 = zext i32 %48 to i64
  %50 = getelementptr i8, ptr %42, i64 %49
  store i8 %39, ptr %50, align 1
  call void @llvm.lifetime.end.p0(i64 1, ptr %4) #10
  br label %51

51:                                               ; preds = %13
  %52 = load i32, ptr %3, align 4
  %53 = add i32 %52, 1
  store i32 %53, ptr %3, align 4
  br label %5, !llvm.loop !13

54:                                               ; preds = %12
  ret void
}

; Function Attrs: null_pointer_is_valid sspstrong uwtable
define internal zeroext i1 @root_keys_update_cb(ptr noundef %0, ptr noundef %1) #0 {
  %3 = alloca i1, align 1
  %4 = alloca ptr, align 8
  %5 = alloca ptr, align 8
  %6 = alloca ptr, align 8
  %7 = alloca i32, align 4
  store ptr %0, ptr %4, align 8
  store ptr %1, ptr %5, align 8
  call void @llvm.lifetime.start.p0(i64 8, ptr %6) #10
  %8 = load ptr, ptr %4, align 8
  store ptr %8, ptr %6, align 8
  %9 = load ptr, ptr %6, align 8
  %10 = getelementptr inbounds nuw %struct._root_keys_t, ptr %9, i32 0, i32 0
  %11 = load ptr, ptr %10, align 8
  %12 = icmp eq ptr %11, null
  br i1 %12, label %13, label %16

13:                                               ; preds = %2
  %14 = call noalias ptr @g_strdup(ptr noundef @.str.305)
  %15 = load ptr, ptr %5, align 8
  store ptr %14, ptr %15, align 8
  store i1 false, ptr %3, align 1
  store i32 1, ptr %7, align 4
  br label %89

16:                                               ; preds = %2
  %17 = load ptr, ptr %6, align 8
  %18 = getelementptr inbounds nuw %struct._root_keys_t, ptr %17, i32 0, i32 2
  %19 = load ptr, ptr %18, align 8
  %20 = icmp ne ptr %19, null
  br i1 %20, label %25, label %21

21:                                               ; preds = %16
  %22 = call ptr @g_byte_array_new()
  %23 = load ptr, ptr %6, align 8
  %24 = getelementptr inbounds nuw %struct._root_keys_t, ptr %23, i32 0, i32 2
  store ptr %22, ptr %24, align 8
  br label %25

25:                                               ; preds = %21, %16
  %26 = load ptr, ptr %6, align 8
  %27 = getelementptr inbounds nuw %struct._root_keys_t, ptr %26, i32 0, i32 0
  %28 = load ptr, ptr %27, align 8
  %29 = load ptr, ptr %6, align 8
  %30 = getelementptr inbounds nuw %struct._root_keys_t, ptr %29, i32 0, i32 2
  %31 = load ptr, ptr %30, align 8
  %32 = call zeroext i1 @hex_str_to_bytes(ptr noundef %28, ptr noundef %31, i1 noundef zeroext false)
  br i1 %32, label %36, label %33

33:                                               ; preds = %25
  %34 = call noalias ptr @g_strdup(ptr noundef @.str.306)
  %35 = load ptr, ptr %5, align 8
  store ptr %34, ptr %35, align 8
  store i1 false, ptr %3, align 1
  store i32 1, ptr %7, align 4
  br label %89

36:                                               ; preds = %25
  %37 = load ptr, ptr %6, align 8
  %38 = getelementptr inbounds nuw %struct._root_keys_t, ptr %37, i32 0, i32 2
  %39 = load ptr, ptr %38, align 8
  %40 = getelementptr inbounds nuw %struct._GByteArray, ptr %39, i32 0, i32 1
  %41 = load i32, ptr %40, align 8
  %42 = icmp ne i32 %41, 8
  br i1 %42, label %43, label %46

43:                                               ; preds = %36
  %44 = call noalias ptr @g_strdup(ptr noundef @.str.307)
  %45 = load ptr, ptr %5, align 8
  store ptr %44, ptr %45, align 8
  store i1 false, ptr %3, align 1
  store i32 1, ptr %7, align 4
  br label %89

46:                                               ; preds = %36
  %47 = load ptr, ptr %6, align 8
  %48 = getelementptr inbounds nuw %struct._root_keys_t, ptr %47, i32 0, i32 2
  %49 = load ptr, ptr %48, align 8
  call void @byte_array_reverse(ptr noundef %49)
  %50 = load ptr, ptr %6, align 8
  %51 = getelementptr inbounds nuw %struct._root_keys_t, ptr %50, i32 0, i32 1
  %52 = load ptr, ptr %51, align 8
  %53 = icmp eq ptr %52, null
  br i1 %53, label %54, label %57

54:                                               ; preds = %46
  %55 = call noalias ptr @g_strdup(ptr noundef @.str.308)
  %56 = load ptr, ptr %5, align 8
  store ptr %55, ptr %56, align 8
  store i1 false, ptr %3, align 1
  store i32 1, ptr %7, align 4
  br label %89

57:                                               ; preds = %46
  %58 = load ptr, ptr %6, align 8
  %59 = getelementptr inbounds nuw %struct._root_keys_t, ptr %58, i32 0, i32 3
  %60 = load ptr, ptr %59, align 8
  %61 = icmp ne ptr %60, null
  br i1 %61, label %66, label %62

62:                                               ; preds = %57
  %63 = call ptr @g_byte_array_new()
  %64 = load ptr, ptr %6, align 8
  %65 = getelementptr inbounds nuw %struct._root_keys_t, ptr %64, i32 0, i32 3
  store ptr %63, ptr %65, align 8
  br label %66

66:                                               ; preds = %62, %57
  %67 = load ptr, ptr %6, align 8
  %68 = getelementptr inbounds nuw %struct._root_keys_t, ptr %67, i32 0, i32 1
  %69 = load ptr, ptr %68, align 8
  %70 = load ptr, ptr %6, align 8
  %71 = getelementptr inbounds nuw %struct._root_keys_t, ptr %70, i32 0, i32 3
  %72 = load ptr, ptr %71, align 8
  %73 = call zeroext i1 @hex_str_to_bytes(ptr noundef %69, ptr noundef %72, i1 noundef zeroext false)
  br i1 %73, label %77, label %74

74:                                               ; preds = %66
  %75 = call noalias ptr @g_strdup(ptr noundef @.str.309)
  %76 = load ptr, ptr %5, align 8
  store ptr %75, ptr %76, align 8
  store i1 false, ptr %3, align 1
  store i32 1, ptr %7, align 4
  br label %89

77:                                               ; preds = %66
  %78 = load ptr, ptr %6, align 8
  %79 = getelementptr inbounds nuw %struct._root_keys_t, ptr %78, i32 0, i32 3
  %80 = load ptr, ptr %79, align 8
  %81 = getelementptr inbounds nuw %struct._GByteArray, ptr %80, i32 0, i32 1
  %82 = load i32, ptr %81, align 8
  %83 = icmp ne i32 %82, 16
  br i1 %83, label %84, label %87

84:                                               ; preds = %77
  %85 = call noalias ptr @g_strdup(ptr noundef @.str.310)
  %86 = load ptr, ptr %5, align 8
  store ptr %85, ptr %86, align 8
  store i1 false, ptr %3, align 1
  store i32 1, ptr %7, align 4
  br label %89

87:                                               ; preds = %77
  %88 = load ptr, ptr %5, align 8
  store ptr null, ptr %88, align 8
  store i1 true, ptr %3, align 1
  store i32 1, ptr %7, align 4
  br label %89

89:                                               ; preds = %87, %84, %74, %54, %43, %33, %13
  call void @llvm.lifetime.end.p0(i64 8, ptr %6) #10
  %90 = load i1, ptr %3, align 1
  ret i1 %90
}