; Function Attrs: null_pointer_is_valid sspstrong uwtable
define internal noundef zeroext i1 @root_keys_update_cb(ptr noundef captures(none) %0, ptr noundef writeonly captures(none) %1) #0 {
  %3 = load ptr, ptr %0, align 8
  %4 = icmp eq ptr %3, null
  br i1 %4, label %.sink.split, label %5

5:                                                ; preds = %2
  %6 = getelementptr inbounds nuw i8, ptr %0, i64 16
  %7 = load ptr, ptr %6, align 8
  %.not = icmp eq ptr %7, null
  br i1 %.not, label %8, label %10

8:                                                ; preds = %5
  %9 = tail call ptr @g_byte_array_new()
  store ptr %9, ptr %6, align 8
  %.pre = load ptr, ptr %0, align 8
  br label %10

10:                                               ; preds = %8, %5
  %11 = phi ptr [ %9, %8 ], [ %7, %5 ]
  %12 = phi ptr [ %.pre, %8 ], [ %3, %5 ]
  %13 = tail call zeroext i1 @hex_str_to_bytes(ptr noundef %12, ptr noundef %11, i1 noundef zeroext false)
  br i1 %13, label %14, label %.sink.split

14:                                               ; preds = %10
  %15 = load ptr, ptr %6, align 8
  %16 = getelementptr inbounds nuw i8, ptr %15, i64 8
  %17 = load i32, ptr %16, align 8
  %.not22 = icmp eq i32 %17, 8
  br i1 %.not22, label %.lr.ph.i, label %.sink.split

.lr.ph.i:                                         ; preds = %14, %.lr.ph.i
  %indvars.iv.i = phi i64 [ %indvars.iv.next.i, %.lr.ph.i ], [ 0, %14 ]
  %18 = phi i32 [ %33, %.lr.ph.i ], [ 8, %14 ]
  %19 = load ptr, ptr %15, align 8
  %20 = getelementptr i8, ptr %19, i64 %indvars.iv.i
  %21 = load i8, ptr %20, align 1
  %22 = trunc nuw nsw i64 %indvars.iv.i to i32
  %23 = xor i32 %22, -1
  %24 = add i32 %18, %23
  %25 = zext i32 %24 to i64
  %26 = getelementptr i8, ptr %19, i64 %25
  %27 = load i8, ptr %26, align 1
  store i8 %27, ptr %20, align 1
  %28 = load ptr, ptr %15, align 8
  %29 = load i32, ptr %16, align 8
  %30 = add i32 %29, %23
  %31 = zext i32 %30 to i64
  %32 = getelementptr i8, ptr %28, i64 %31
  store i8 %21, ptr %32, align 1
  %indvars.iv.next.i = add nuw nsw i64 %indvars.iv.i, 1
  %33 = load i32, ptr %16, align 8
  %34 = lshr i32 %33, 1
  %35 = zext nneg i32 %34 to i64
  %36 = icmp samesign ult i64 %indvars.iv.next.i, %35
  br i1 %36, label %.lr.ph.i, label %byte_array_reverse.exit, !llvm.loop !13

byte_array_reverse.exit:                          ; preds = %.lr.ph.i
  %37 = getelementptr inbounds nuw i8, ptr %0, i64 8
  %38 = load ptr, ptr %37, align 8
  %39 = icmp eq ptr %38, null
  br i1 %39, label %.sink.split, label %40

40:                                               ; preds = %byte_array_reverse.exit
  %41 = getelementptr inbounds nuw i8, ptr %0, i64 24
  %42 = load ptr, ptr %41, align 8
  %.not23 = icmp eq ptr %42, null
  br i1 %.not23, label %43, label %45

43:                                               ; preds = %40
  %44 = tail call ptr @g_byte_array_new()
  store ptr %44, ptr %41, align 8
  %.pre25 = load ptr, ptr %37, align 8
  br label %45

45:                                               ; preds = %43, %40
  %46 = phi ptr [ %44, %43 ], [ %42, %40 ]
  %47 = phi ptr [ %.pre25, %43 ], [ %38, %40 ]
  %48 = tail call zeroext i1 @hex_str_to_bytes(ptr noundef %47, ptr noundef %46, i1 noundef zeroext false)
  br i1 %48, label %49, label %.sink.split

49:                                               ; preds = %45
  %50 = load ptr, ptr %41, align 8
  %51 = getelementptr inbounds nuw i8, ptr %50, i64 8
  %52 = load i32, ptr %51, align 8
  %.not24 = icmp eq i32 %52, 16
  br i1 %.not24, label %54, label %.sink.split

.sink.split:                                      ; preds = %49, %45, %byte_array_reverse.exit, %14, %10, %2
  %.str.310.sink = phi ptr [ @.str.305, %2 ], [ @.str.306, %10 ], [ @.str.307, %14 ], [ @.str.308, %byte_array_reverse.exit ], [ @.str.309, %45 ], [ @.str.310, %49 ]
  %53 = tail call noalias ptr @g_strdup(ptr noundef nonnull %.str.310.sink)
  br label %54

54:                                               ; preds = %.sink.split, %49
  %.sink = phi ptr [ null, %49 ], [ %53, %.sink.split ]
  %.0 = phi i1 [ true, %49 ], [ false, %.sink.split ]
  store ptr %.sink, ptr %1, align 8
  ret i1 %.0
}